target datalayout = "e-m:e-p270:32:32-p271:32:32-p272:64:64-i64:64-i128:128-f80:128-n8:16:32:64-S128"
target triple = "x86_64-pc-linux-gnu"

%struct._generic_SUNMatrix = type { ptr, ptr, ptr }
%struct._SUNMatrixContent_Band = type { i64, i64, i64, i64, i64, i64, ptr, i64, ptr }

; Function Attrs: nounwind uwtable
define i32 @SUNMatMatvec_Band(ptr noundef %0, ptr noundef %1, ptr noundef %2) #0 {
  %4 = alloca ptr, align 8
  %5 = alloca ptr, align 8
  %6 = alloca ptr, align 8
  %7 = alloca ptr, align 8
  %8 = alloca i64, align 8
  %9 = alloca i64, align 8
  %10 = alloca i64, align 8
  %11 = alloca i64, align 8
  %12 = alloca ptr, align 8
  %13 = alloca ptr, align 8
  %14 = alloca ptr, align 8
  store ptr %0, ptr %4, align 8, !tbaa !10
  store ptr %1, ptr %5, align 8, !tbaa !44
  store ptr %2, ptr %6, align 8, !tbaa !44
  call void @llvm.lifetime.start.p0(i64 8, ptr %7) #8
  %15 = load ptr, ptr %4, align 8, !tbaa !10
  %16 = getelementptr inbounds nuw %struct._generic_SUNMatrix, ptr %15, i32 0, i32 2
  %17 = load ptr, ptr %16, align 8, !tbaa !41
  store ptr %17, ptr %7, align 8, !tbaa !7
  call void @llvm.lifetime.start.p0(i64 8, ptr %8) #8
  call void @llvm.lifetime.start.p0(i64 8, ptr %9) #8
  call void @llvm.lifetime.start.p0(i64 8, ptr %10) #8
  call void @llvm.lifetime.start.p0(i64 8, ptr %11) #8
  call void @llvm.lifetime.start.p0(i64 8, ptr %12) #8
  call void @llvm.lifetime.start.p0(i64 8, ptr %13) #8
  call void @llvm.lifetime.start.p0(i64 8, ptr %14) #8
  %18 = load ptr, ptr %5, align 8, !tbaa !44
  %19 = call ptr @N_VGetArrayPointer(ptr noundef %18)
  store ptr %19, ptr %13, align 8, !tbaa !40
  %20 = load ptr, ptr %6, align 8, !tbaa !44
  %21 = call ptr @N_VGetArrayPointer(ptr noundef %20)
  store ptr %21, ptr %14, align 8, !tbaa !40
  store i64 0, ptr %8, align 8, !tbaa !3
  br label %22

22:                                               ; preds = %34, %3
  %23 = load i64, ptr %8, align 8, !tbaa !3
  %24 = load ptr, ptr %4, align 8, !tbaa !10
  %25 = getelementptr inbounds nuw %struct._generic_SUNMatrix, ptr %24, i32 0, i32 0
  %26 = load ptr, ptr %25, align 8, !tbaa !27
  %27 = getelementptr inbounds nuw %struct._SUNMatrixContent_Band, ptr %26, i32 0, i32 0
  %28 = load i64, ptr %27, align 8, !tbaa !28
  %29 = icmp slt i64 %23, %28
  br i1 %29, label %30, label %37

30:                                               ; preds = %22
  %31 = load ptr, ptr %14, align 8, !tbaa !40
  %32 = load i64, ptr %8, align 8, !tbaa !3
  %33 = getelementptr inbounds double, ptr %31, i64 %32
  store double 0.000000e+00, ptr %33, align 8, !tbaa !42
  br label %34

34:                                               ; preds = %30
  %35 = load i64, ptr %8, align 8, !tbaa !3
  %36 = add nsw i64 %35, 1
  store i64 %36, ptr %8, align 8, !tbaa !3
  br label %22

37:                                               ; preds = %22
  store i64 0, ptr %9, align 8, !tbaa !3
  br label %38

38:                                               ; preds = %136, %37
  %39 = load i64, ptr %9, align 8, !tbaa !3
  %40 = load ptr, ptr %4, align 8, !tbaa !10
  %41 = getelementptr inbounds nuw %struct._generic_SUNMatrix, ptr %40, i32 0, i32 0
  %42 = load ptr, ptr %41, align 8, !tbaa !27
  %43 = getelementptr inbounds nuw %struct._SUNMatrixContent_Band, ptr %42, i32 0, i32 1
  %44 = load i64, ptr %43, align 8, !tbaa !32
  %45 = icmp slt i64 %39, %44
  br i1 %45, label %46, label %139

46:                                               ; preds = %38
  %47 = load ptr, ptr %4, align 8, !tbaa !10
  %48 = getelementptr inbounds nuw %struct._generic_SUNMatrix, ptr %47, i32 0, i32 0
  %49 = load ptr, ptr %48, align 8, !tbaa !27
  %50 = getelementptr inbounds nuw %struct._SUNMatrixContent_Band, ptr %49, i32 0, i32 8
  %51 = load ptr, ptr %50, align 8, !tbaa !39
  %52 = load i64, ptr %9, align 8, !tbaa !3
  %53 = getelementptr inbounds ptr, ptr %51, i64 %52
  %54 = load ptr, ptr %53, align 8, !tbaa !40
  %55 = load ptr, ptr %4, align 8, !tbaa !10
  %56 = getelementptr inbounds nuw %struct._generic_SUNMatrix, ptr %55, i32 0, i32 0
  %57 = load ptr, ptr %56, align 8, !tbaa !27
  %58 = getelementptr inbounds nuw %struct._SUNMatrixContent_Band, ptr %57, i32 0, i32 5
  %59 = load i64, ptr %58, align 8, !tbaa !35
  %60 = getelementptr inbounds double, ptr %54, i64 %59
  store ptr %60, ptr %12, align 8, !tbaa !40
  %61 = load i64, ptr %9, align 8, !tbaa !3
  %62 = load ptr, ptr %4, align 8, !tbaa !10
  %63 = getelementptr inbounds nuw %struct._generic_SUNMatrix, ptr %62, i32 0, i32 0
  %64 = load ptr, ptr %63, align 8, !tbaa !27
  %65 = getelementptr inbounds nuw %struct._SUNMatrixContent_Band, ptr %64, i32 0, i32 3
  %66 = load i64, ptr %65, align 8, !tbaa !33
  %67 = sub nsw i64 %61, %66
  %68 = icmp sgt i64 0, %67
  br i1 %68, label %69, label %70

69:                                               ; preds = %46
  br label %78

70:                                               ; preds = %46
  %71 = load i64, ptr %9, align 8, !tbaa !3
  %72 = load ptr, ptr %4, align 8, !tbaa !10
  %73 = getelementptr inbounds nuw %struct._generic_SUNMatrix, ptr %72, i32 0, i32 0
  %74 = load ptr, ptr %73, align 8, !tbaa !27
  %75 = getelementptr inbounds nuw %struct._SUNMatrixContent_Band, ptr %74, i32 0, i32 3
  %76 = load i64, ptr %75, align 8, !tbaa !33
  %77 = sub nsw i64 %71, %76
  br label %78

78:                                               ; preds = %70, %69
  %79 = phi i64 [ 0, %69 ], [ %77, %70 ]
  store i64 %79, ptr %10, align 8, !tbaa !3
  %80 = load ptr, ptr %4, align 8, !tbaa !10
  %81 = getelementptr inbounds nuw %struct._generic_SUNMatrix, ptr %80, i32 0, i32 0
  %82 = load ptr, ptr %81, align 8, !tbaa !27
  %83 = getelementptr inbounds nuw %struct._SUNMatrixContent_Band, ptr %82, i32 0, i32 0
  %84 = load i64, ptr %83, align 8, !tbaa !28
  %85 = sub nsw i64 %84, 1
  %86 = load i64, ptr %9, align 8, !tbaa !3
  %87 = load ptr, ptr %4, align 8, !tbaa !10
  %88 = getelementptr inbounds nuw %struct._generic_SUNMatrix, ptr %87, i32 0, i32 0
  %89 = load ptr, ptr %88, align 8, !tbaa !27
  %90 = getelementptr inbounds nuw %struct._SUNMatrixContent_Band, ptr %89, i32 0, i32 4
  %91 = load i64, ptr %90, align 8, !tbaa !34
  %92 = add nsw i64 %86, %91
  %93 = icmp slt i64 %85, %92
  br i1 %93, label %94, label %101

94:                                               ; preds = %78
  %95 = load ptr, ptr %4, align 8, !tbaa !10
  %96 = getelementptr inbounds nuw %struct._generic_SUNMatrix, ptr %95, i32 0, i32 0
  %97 = load ptr, ptr %96, align 8, !tbaa !27
  %98 = getelementptr inbounds nuw %struct._SUNMatrixContent_Band, ptr %97, i32 0, i32 0
  %99 = load i64, ptr %98, align 8, !tbaa !28
  %100 = sub nsw i64 %99, 1
  br label %109

101:                                              ; preds = %78
  %102 = load i64, ptr %9, align 8, !tbaa !3
  %103 = load ptr, ptr %4, align 8, !tbaa !10
  %104 = getelementptr inbounds nuw %struct._generic_SUNMatrix, ptr %103, i32 0, i32 0
  %105 = load ptr, ptr %104, align 8, !tbaa !27
  %106 = getelementptr inbounds nuw %struct._SUNMatrixContent_Band, ptr %105, i32 0, i32 4
  %107 = load i64, ptr %106, align 8, !tbaa !34
  %108 = add nsw i64 %102, %107
  br label %109

109:                                              ; preds = %101, %94
  %110 = phi i64 [ %100, %94 ], [ %108, %101 ]
  store i64 %110, ptr %11, align 8, !tbaa !3
  %111 = load i64, ptr %10, align 8, !tbaa !3
  store i64 %111, ptr %8, align 8, !tbaa !3
  br label %112

112:                                              ; preds = %132, %109
  %113 = load i64, ptr %8, align 8, !tbaa !3
  %114 = load i64, ptr %11, align 8, !tbaa !3
  %115 = icmp sle i64 %113, %114
  br i1 %115, label %116, label %135

116:                                              ; preds = %112
  %117 = load ptr, ptr %12, align 8, !tbaa !40
  %118 = load i64, ptr %8, align 8, !tbaa !3
  %119 = load i64, ptr %9, align 8, !tbaa !3
  %120 = sub nsw i64 %118, %119
  %121 = getelementptr inbounds double, ptr %117, i64 %120
  %122 = load double, ptr %121, align 8, !tbaa !42
  %123 = load ptr, ptr %13, align 8, !tbaa !40
  %124 = load i64, ptr %9, align 8, !tbaa !3
  %125 = getelementptr inbounds double, ptr %123, i64 %124
  %126 = load double, ptr %125, align 8, !tbaa !42
  %127 = load ptr, ptr %14, align 8, !tbaa !40
  %128 = load i64, ptr %8, align 8, !tbaa !3
  %129 = getelementptr inbounds double, ptr %127, i64 %128
  %130 = load double, ptr %129, align 8, !tbaa !42
  %131 = call double @llvm.fmuladd.f64(double %122, double %126, double %130)
  store double %131, ptr %129, align 8, !tbaa !42
  br label %132

132:                                              ; preds = %116
  %133 = load i64, ptr %8, align 8, !tbaa !3
  %134 = add nsw i64 %133, 1
  store i64 %134, ptr %8, align 8, !tbaa !3
  br label %112

135:                                              ; preds = %112
  br label %136

136:                                              ; preds = %135
  %137 = load i64, ptr %9, align 8, !tbaa !3
  %138 = add nsw i64 %137, 1
  store i64 %138, ptr %9, align 8, !tbaa !3
  br label %38

139:                                              ; preds = %38
  call void @llvm.lifetime.end.p0(i64 8, ptr %14) #8
  call void @llvm.lifetime.end.p0(i64 8, ptr %13) #8
  call void @llvm.lifetime.end.p0(i64 8, ptr %12) #8
  call void @llvm.lifetime.end.p0(i64 8, ptr %11) #8
  call void @llvm.lifetime.end.p0(i64 8, ptr %10) #8
  call void @llvm.lifetime.end.p0(i64 8, ptr %9) #8
  call void @llvm.lifetime.end.p0(i64 8, ptr %8) #8
  call void @llvm.lifetime.end.p0(i64 8, ptr %7) #8
  ret i32 0
}