; Function Attrs: nounwind uwtable
define noundef i32 @SUNMatMatvec_Band(ptr noundef readonly captures(none) %0, ptr noundef %1, ptr noundef %2) #0 {
  %4 = tail call ptr @N_VGetArrayPointer(ptr noundef %1) #18
  %5 = tail call ptr @N_VGetArrayPointer(ptr noundef %2) #18
  %6 = load ptr, ptr %0, align 8, !tbaa !20
  %7 = load i64, ptr %6, align 8, !tbaa !21
  %8 = icmp sgt i64 %7, 0
  br i1 %8, label %.lr.ph.preheader, label %.preheader

.lr.ph.preheader:                                 ; preds = %3
  %9 = shl nuw i64 %7, 3
  tail call void @llvm.memset.p0.i64(ptr align 8 %5, i8 0, i64 %9, i1 false), !tbaa !36
  br label %.preheader

.preheader:                                       ; preds = %.lr.ph.preheader, %3
  %10 = getelementptr inbounds nuw i8, ptr %6, i64 8
  %11 = load i64, ptr %10, align 8, !tbaa !26
  %12 = icmp sgt i64 %11, 0
  br i1 %12, label %.lr.ph46, label %._crit_edge47

.lr.ph46:                                         ; preds = %.preheader
  %13 = getelementptr inbounds nuw i8, ptr %6, i64 64
  %14 = load ptr, ptr %13, align 8, !tbaa !33
  %15 = getelementptr inbounds nuw i8, ptr %6, i64 40
  %16 = load i64, ptr %15, align 8, !tbaa !29
  %17 = getelementptr inbounds nuw i8, ptr %6, i64 24
  %18 = load i64, ptr %17, align 8, !tbaa !27
  %19 = getelementptr inbounds nuw i8, ptr %6, i64 32
  %20 = load i64, ptr %19, align 8, !tbaa !28
  %21 = add nsw i64 %7, -1
  br label %22

22:                                               ; preds = %.lr.ph46, %._crit_edge
  %.03445 = phi i64 [ 0, %.lr.ph46 ], [ %39, %._crit_edge ]
  %23 = getelementptr inbounds nuw ptr, ptr %14, i64 %.03445
  %24 = load ptr, ptr %23, align 8, !tbaa !34
  %25 = getelementptr inbounds double, ptr %24, i64 %16
  %26 = sub nsw i64 %.03445, %18
  %spec.select = tail call i64 @llvm.smax.i64(i64 %26, i64 0)
  %27 = add nsw i64 %20, %.03445
  %.not = icmp sgt i64 %7, %27
  %28 = select i1 %.not, i64 %27, i64 %21
  %.not3842 = icmp sgt i64 %spec.select, %28
  br i1 %.not3842, label %._crit_edge, label %.lr.ph44

.lr.ph44:                                         ; preds = %22
  %29 = getelementptr inbounds nuw double, ptr %4, i64 %.03445
  br label %30

30:                                               ; preds = %.lr.ph44, %30
  %.143 = phi i64 [ %spec.select, %.lr.ph44 ], [ %38, %30 ]
  %31 = sub nsw i64 %.143, %.03445
  %32 = getelementptr inbounds double, ptr %25, i64 %31
  %33 = load double, ptr %32, align 8, !tbaa !36
  %34 = load double, ptr %29, align 8, !tbaa !36
  %35 = getelementptr inbounds nuw double, ptr %5, i64 %.143
  %36 = load double, ptr %35, align 8, !tbaa !36
  %37 = tail call double @llvm.fmuladd.f64(double %33, double %34, double %36)
  store double %37, ptr %35, align 8, !tbaa !36
  %38 = add nuw nsw i64 %.143, 1
  %.not38.not = icmp slt i64 %.143, %28
  br i1 %.not38.not, label %30, label %._crit_edge

._crit_edge:                                      ; preds = %30, %22
  %39 = add nuw nsw i64 %.03445, 1
  %exitcond.not = icmp eq i64 %39, %11
  br i1 %exitcond.not, label %._crit_edge47, label %22

._crit_edge47:                                    ; preds = %._crit_edge, %.preheader
  ret i32 0
}